target datalayout = "e-m:e-p270:32:32-p271:32:32-p272:64:64-i64:64-i128:128-f80:128-n8:16:32:64-S128"
target triple = "x86_64-pc-linux-gnu"

%struct.parms_t = type { ptr, ptr, ptr, i32, i32, i32, i32, i32 }

@stdin = external global ptr, align 8
@stdout = external global ptr, align 8
@.str = private unnamed_addr constant [6 x i8] c"stdin\00", align 1
@stderr = external global ptr, align 8
@.str.1 = private unnamed_addr constant [32 x i8] c"Unable to read input file \22%s\22\0A\00", align 1
@.str.2 = private unnamed_addr constant [28 x i8] c"cannot import from file %s\0A\00", align 1
@cmd = internal global ptr null, align 8
@opterr = external global i32, align 4
@.str.3 = private unnamed_addr constant [11 x i8] c":o:uvclU:?\00", align 1
@optarg = external global ptr, align 8
@.str.4 = private unnamed_addr constant [2 x i8] c"w\00", align 1
@.str.5 = private unnamed_addr constant [3 x i8] c"%d\00", align 1
@.str.6 = private unnamed_addr constant [43 x i8] c"%s: option -%c missing argument - ignored\0A\00", align 1
@optopt = external global i32, align 4
@.str.7 = private unnamed_addr constant [29 x i8] c"%s: option -%c unrecognized\0A\00", align 1
@.str.8 = private unnamed_addr constant [45 x i8] c"%s:%d: claimed unreachable code was reached\0A\00", align 1
@.str.9 = private unnamed_addr constant [113 x i8] c"generated/home/dtcxzyw/WorkSpace/Projects/compilers/llvm-opt-benchmark/bench/graphviz/graphviz/cmd/tools/mm2gv.c\00", align 1
@optind = external global i32, align 4
@.str.10 = private unnamed_addr constant [2 x i8] c"r\00", align 1
@.str.11 = private unnamed_addr constant [26 x i8] c"Could not open %s for %s\0A\00", align 1
@.str.12 = private unnamed_addr constant [8 x i8] c"reading\00", align 1
@.str.13 = private unnamed_addr constant [8 x i8] c"writing\00", align 1

; Function Attrs: nounwind uwtable
define internal ptr @openF(ptr noundef %0, ptr noundef %1) #0 {
  %3 = alloca ptr, align 8
  %4 = alloca ptr, align 8
  %5 = alloca ptr, align 8
  store ptr %0, ptr %3, align 8, !tbaa !28
  store ptr %1, ptr %4, align 8, !tbaa !28
  call void @llvm.lifetime.start.p0(i64 8, ptr %5) #13
  %6 = load ptr, ptr %3, align 8, !tbaa !28
  %7 = load ptr, ptr %4, align 8, !tbaa !28
  %8 = call noalias ptr @fopen(ptr noundef %6, ptr noundef %7)
  store ptr %8, ptr %5, align 8, !tbaa !15
  %9 = load ptr, ptr %5, align 8, !tbaa !15
  %10 = icmp ne ptr %9, null
  br i1 %10, label %20, label %11

11:                                               ; preds = %2
  %12 = load ptr, ptr @stderr, align 8, !tbaa !15
  %13 = load ptr, ptr %3, align 8, !tbaa !28
  %14 = load ptr, ptr %4, align 8, !tbaa !28
  %15 = load i8, ptr %14, align 1, !tbaa !76
  %16 = sext i8 %15 to i32
  %17 = icmp eq i32 %16, 114
  %18 = select i1 %17, ptr @.str.12, ptr @.str.13
  %19 = call i32 (ptr, ptr, ...) @fprintf(ptr noundef %12, ptr noundef @.str.11, ptr noundef %13, ptr noundef %18) #13
  call void @graphviz_exit(i32 noundef 1) #14
  unreachable

20:                                               ; preds = %2
  %21 = load ptr, ptr %5, align 8, !tbaa !15
  call void @llvm.lifetime.end.p0(i64 8, ptr %5) #13
  ret ptr %21
}

; Function Attrs: nounwind uwtable
define internal void @init(i32 noundef %0, ptr noundef %1, ptr noundef %2) #0 {
  %4 = alloca i32, align 4
  %5 = alloca ptr, align 8
  %6 = alloca ptr, align 8
  %7 = alloca i32, align 4
  %8 = alloca i32, align 4
  store i32 %0, ptr %4, align 4, !tbaa !4
  store ptr %1, ptr %5, align 8, !tbaa !8
  store ptr %2, ptr %6, align 8, !tbaa !27
  call void @llvm.lifetime.start.p0(i64 4, ptr %7) #13
  %9 = load ptr, ptr %5, align 8, !tbaa !8
  %10 = getelementptr inbounds ptr, ptr %9, i64 0
  %11 = load ptr, ptr %10, align 8, !tbaa !28
  store ptr %11, ptr @cmd, align 8, !tbaa !28
  store i32 0, ptr @opterr, align 4, !tbaa !4
  br label %12

12:                                               ; preds = %76, %3
  %13 = load i32, ptr %4, align 4, !tbaa !4
  %14 = load ptr, ptr %5, align 8, !tbaa !8
  %15 = call i32 @getopt(i32 noundef %13, ptr noundef %14, ptr noundef @.str.3) #13
  store i32 %15, ptr %7, align 4, !tbaa !4
  %16 = icmp ne i32 %15, -1
  br i1 %16, label %17, label %77

17:                                               ; preds = %12
  %18 = load i32, ptr %7, align 4, !tbaa !4
  switch i32 %18, label %70 [
    i32 111, label %19
    i32 108, label %24
    i32 117, label %27
    i32 118, label %30
    i32 99, label %33
    i32 85, label %36
    i32 58, label %52
    i32 63, label %57
  ]

19:                                               ; preds = %17
  %20 = load ptr, ptr @optarg, align 8, !tbaa !28
  %21 = call ptr @openF(ptr noundef %20, ptr noundef @.str.4)
  %22 = load ptr, ptr %6, align 8, !tbaa !27
  %23 = getelementptr inbounds nuw %struct.parms_t, ptr %22, i32 0, i32 1
  store ptr %21, ptr %23, align 8, !tbaa !20
  br label %76

24:                                               ; preds = %17
  %25 = load ptr, ptr %6, align 8, !tbaa !27
  %26 = getelementptr inbounds nuw %struct.parms_t, ptr %25, i32 0, i32 4
  store i32 1, ptr %26, align 4, !tbaa !23
  br label %76

27:                                               ; preds = %17
  %28 = load ptr, ptr %6, align 8, !tbaa !27
  %29 = getelementptr inbounds nuw %struct.parms_t, ptr %28, i32 0, i32 3
  store i32 1, ptr %29, align 8, !tbaa !22
  br label %76

30:                                               ; preds = %17
  %31 = load ptr, ptr %6, align 8, !tbaa !27
  %32 = getelementptr inbounds nuw %struct.parms_t, ptr %31, i32 0, i32 6
  store i32 1, ptr %32, align 4, !tbaa !25
  br label %76

33:                                               ; preds = %17
  %34 = load ptr, ptr %6, align 8, !tbaa !27
  %35 = getelementptr inbounds nuw %struct.parms_t, ptr %34, i32 0, i32 5
  store i32 1, ptr %35, align 8, !tbaa !24
  br label %76

36:                                               ; preds = %17
  call void @llvm.lifetime.start.p0(i64 4, ptr %8) #13
  %37 = load ptr, ptr @optarg, align 8, !tbaa !28
  %38 = call i32 (ptr, ptr, ...) @__isoc99_sscanf(ptr noundef %37, ptr noundef @.str.5, ptr noundef %8) #13
  %39 = icmp sle i32 %38, 0
  br i1 %39, label %46, label %40

40:                                               ; preds = %36
  %41 = load i32, ptr %8, align 4, !tbaa !4
  %42 = icmp slt i32 %41, 0
  br i1 %42, label %46, label %43

43:                                               ; preds = %40
  %44 = load i32, ptr %8, align 4, !tbaa !4
  %45 = icmp sgt i32 %44, 3
  br i1 %45, label %46, label %47

46:                                               ; preds = %43, %40, %36
  call void @usage(i32 noundef 1)
  br label %51

47:                                               ; preds = %43
  %48 = load i32, ptr %8, align 4, !tbaa !4
  %49 = load ptr, ptr %6, align 8, !tbaa !27
  %50 = getelementptr inbounds nuw %struct.parms_t, ptr %49, i32 0, i32 7
  store i32 %48, ptr %50, align 8, !tbaa !26
  br label %51

51:                                               ; preds = %47, %46
  call void @llvm.lifetime.end.p0(i64 4, ptr %8) #13
  br label %76

52:                                               ; preds = %17
  %53 = load ptr, ptr @stderr, align 8, !tbaa !15
  %54 = load ptr, ptr @cmd, align 8, !tbaa !28
  %55 = load i32, ptr @optopt, align 4, !tbaa !4
  %56 = call i32 (ptr, ptr, ...) @fprintf(ptr noundef %53, ptr noundef @.str.6, ptr noundef %54, i32 noundef %55) #13
  br label %76

57:                                               ; preds = %17
  %58 = load i32, ptr @optopt, align 4, !tbaa !4
  %59 = icmp eq i32 %58, 0
  br i1 %59, label %63, label %60

60:                                               ; preds = %57
  %61 = load i32, ptr @optopt, align 4, !tbaa !4
  %62 = icmp eq i32 %61, 63
  br i1 %62, label %63, label %64

63:                                               ; preds = %60, %57
  call void @usage(i32 noundef 0)
  br label %69

64:                                               ; preds = %60
  %65 = load ptr, ptr @stderr, align 8, !tbaa !15
  %66 = load ptr, ptr @cmd, align 8, !tbaa !28
  %67 = load i32, ptr @optopt, align 4, !tbaa !4
  %68 = call i32 (ptr, ptr, ...) @fprintf(ptr noundef %65, ptr noundef @.str.7, ptr noundef %66, i32 noundef %67) #13
  call void @usage(i32 noundef 1)
  br label %69

69:                                               ; preds = %64, %63
  br label %76

70:                                               ; preds = %17
  br label %71

71:                                               ; preds = %70
  %72 = load ptr, ptr @stderr, align 8, !tbaa !15
  %73 = call i32 (ptr, ptr, ...) @fprintf(ptr noundef %72, ptr noundef @.str.8, ptr noundef @.str.9, i32 noundef 281) #13
  call void @abort() #15
  unreachable

74:                                               ; No predecessors!
  br label %75

75:                                               ; preds = %74
  br label %76

76:                                               ; preds = %75, %69, %52, %51, %33, %30, %27, %24, %19
  br label %12, !llvm.loop !29

77:                                               ; preds = %12
  %78 = load i32, ptr @optind, align 4, !tbaa !4
  %79 = load ptr, ptr %5, align 8, !tbaa !8
  %80 = sext i32 %78 to i64
  %81 = getelementptr inbounds ptr, ptr %79, i64 %80
  store ptr %81, ptr %5, align 8, !tbaa !8
  %82 = load i32, ptr @optind, align 4, !tbaa !4
  %83 = load i32, ptr %4, align 4, !tbaa !4
  %84 = sub nsw i32 %83, %82
  store i32 %84, ptr %4, align 4, !tbaa !4
  %85 = load i32, ptr %4, align 4, !tbaa !4
  %86 = icmp sgt i32 %85, 0
  br i1 %86, label %87, label %99

87:                                               ; preds = %77
  %88 = load ptr, ptr %5, align 8, !tbaa !8
  %89 = getelementptr inbounds ptr, ptr %88, i64 0
  %90 = load ptr, ptr %89, align 8, !tbaa !28
  %91 = load ptr, ptr %6, align 8, !tbaa !27
  %92 = getelementptr inbounds nuw %struct.parms_t, ptr %91, i32 0, i32 2
  store ptr %90, ptr %92, align 8, !tbaa !21
  %93 = load ptr, ptr %5, align 8, !tbaa !8
  %94 = getelementptr inbounds ptr, ptr %93, i64 0
  %95 = load ptr, ptr %94, align 8, !tbaa !28
  %96 = call ptr @openF(ptr noundef %95, ptr noundef @.str.10)
  %97 = load ptr, ptr %6, align 8, !tbaa !27
  %98 = getelementptr inbounds nuw %struct.parms_t, ptr %97, i32 0, i32 0
  store ptr %96, ptr %98, align 8, !tbaa !17
  br label %99

99:                                               ; preds = %87, %77
  call void @llvm.lifetime.end.p0(i64 4, ptr %7) #13
  ret void
}

; Function Attrs: nounwind uwtable
define dso_local i32 @main(i32 noundef %0, ptr noundef %1) #0 {
  %3 = alloca i32, align 4
  %4 = alloca i32, align 4
  %5 = alloca ptr, align 8
  %6 = alloca ptr, align 8
  %7 = alloca ptr, align 8
  %8 = alloca i32, align 4
  %9 = alloca %struct.parms_t, align 8
  %10 = alloca ptr, align 8
  store i32 0, ptr %3, align 4
  store i32 %0, ptr %4, align 4, !tbaa !4
  store ptr %1, ptr %5, align 8, !tbaa !8
  call void @llvm.lifetime.start.p0(i64 8, ptr %6) #13
  store ptr null, ptr %6, align 8, !tbaa !11
  call void @llvm.lifetime.start.p0(i64 8, ptr %7) #13
  store ptr null, ptr %7, align 8, !tbaa !13
  call void @llvm.lifetime.start.p0(i64 4, ptr %8) #13
  store i32 0, ptr %8, align 4, !tbaa !4
  call void @llvm.lifetime.start.p0(i64 48, ptr %9) #13
  %11 = load ptr, ptr @stdin, align 8, !tbaa !15
  %12 = getelementptr inbounds nuw %struct.parms_t, ptr %9, i32 0, i32 0
  store ptr %11, ptr %12, align 8, !tbaa !17
  %13 = load ptr, ptr @stdout, align 8, !tbaa !15
  %14 = getelementptr inbounds nuw %struct.parms_t, ptr %9, i32 0, i32 1
  store ptr %13, ptr %14, align 8, !tbaa !20
  %15 = getelementptr inbounds nuw %struct.parms_t, ptr %9, i32 0, i32 2
  store ptr @.str, ptr %15, align 8, !tbaa !21
  %16 = getelementptr inbounds nuw %struct.parms_t, ptr %9, i32 0, i32 3
  store i32 0, ptr %16, align 8, !tbaa !22
  %17 = getelementptr inbounds nuw %struct.parms_t, ptr %9, i32 0, i32 4
  store i32 0, ptr %17, align 4, !tbaa !23
  %18 = getelementptr inbounds nuw %struct.parms_t, ptr %9, i32 0, i32 5
  store i32 0, ptr %18, align 8, !tbaa !24
  %19 = getelementptr inbounds nuw %struct.parms_t, ptr %9, i32 0, i32 6
  store i32 0, ptr %19, align 4, !tbaa !25
  %20 = getelementptr inbounds nuw %struct.parms_t, ptr %9, i32 0, i32 7
  store i32 1, ptr %20, align 8, !tbaa !26
  %21 = load i32, ptr %4, align 4, !tbaa !4
  %22 = load ptr, ptr %5, align 8, !tbaa !8
  call void @init(i32 noundef %21, ptr noundef %22, ptr noundef %9)
  %23 = getelementptr inbounds nuw %struct.parms_t, ptr %9, i32 0, i32 0
  %24 = load ptr, ptr %23, align 8, !tbaa !17
  %25 = call ptr @SparseMatrix_import_matrix_market(ptr noundef %24)
  store ptr %25, ptr %7, align 8, !tbaa !13
  %26 = load ptr, ptr %7, align 8, !tbaa !13
  %27 = icmp ne ptr %26, null
  br i1 %27, label %33, label %28

28:                                               ; preds = %2
  %29 = load ptr, ptr @stderr, align 8, !tbaa !15
  %30 = getelementptr inbounds nuw %struct.parms_t, ptr %9, i32 0, i32 2
  %31 = load ptr, ptr %30, align 8, !tbaa !21
  %32 = call i32 (ptr, ptr, ...) @fprintf(ptr noundef %29, ptr noundef @.str.1, ptr noundef %31) #13
  call void @usage(i32 noundef 1)
  br label %33

33:                                               ; preds = %28, %2
  %34 = load ptr, ptr %7, align 8, !tbaa !13
  %35 = getelementptr inbounds nuw %struct.parms_t, ptr %9, i32 0, i32 7
  %36 = load i32, ptr %35, align 8, !tbaa !26
  %37 = call ptr @SparseMatrix_to_square_matrix(ptr noundef %34, i32 noundef %36)
  store ptr %37, ptr %7, align 8, !tbaa !13
  %38 = load ptr, ptr %7, align 8, !tbaa !13
  %39 = icmp ne ptr %38, null
  br i1 %39, label %45, label %40

40:                                               ; preds = %33
  %41 = load ptr, ptr @stderr, align 8, !tbaa !15
  %42 = getelementptr inbounds nuw %struct.parms_t, ptr %9, i32 0, i32 2
  %43 = load ptr, ptr %42, align 8, !tbaa !21
  %44 = call i32 (ptr, ptr, ...) @fprintf(ptr noundef %41, ptr noundef @.str.2, ptr noundef %43) #13
  call void @graphviz_exit(i32 noundef 1) #14
  unreachable

45:                                               ; preds = %33
  %46 = getelementptr inbounds nuw %struct.parms_t, ptr %9, i32 0, i32 3
  %47 = load i32, ptr %46, align 8, !tbaa !22
  %48 = icmp ne i32 %47, 0
  br i1 %48, label %49, label %54

49:                                               ; preds = %45
  call void @llvm.lifetime.start.p0(i64 8, ptr %10) #13
  %50 = load ptr, ptr %7, align 8, !tbaa !13
  %51 = call ptr @SparseMatrix_make_undirected(ptr noundef %50)
  store ptr %51, ptr %10, align 8, !tbaa !13
  %52 = load ptr, ptr %7, align 8, !tbaa !13
  call void @SparseMatrix_delete(ptr noundef %52)
  %53 = load ptr, ptr %10, align 8, !tbaa !13
  store ptr %53, ptr %7, align 8, !tbaa !13
  call void @llvm.lifetime.end.p0(i64 8, ptr %10) #13
  br label %54

54:                                               ; preds = %49, %45
  %55 = load ptr, ptr %7, align 8, !tbaa !13
  %56 = getelementptr inbounds nuw %struct.parms_t, ptr %9, i32 0, i32 2
  %57 = load ptr, ptr %56, align 8, !tbaa !21
  %58 = load i32, ptr %8, align 4, !tbaa !4
  %59 = getelementptr inbounds nuw %struct.parms_t, ptr %9, i32 0, i32 5
  %60 = load i32, ptr %59, align 8, !tbaa !24
  %61 = getelementptr inbounds nuw %struct.parms_t, ptr %9, i32 0, i32 4
  %62 = load i32, ptr %61, align 4, !tbaa !23
  %63 = getelementptr inbounds nuw %struct.parms_t, ptr %9, i32 0, i32 6
  %64 = load i32, ptr %63, align 4, !tbaa !25
  %65 = call ptr @makeDotGraph(ptr noundef %55, ptr noundef %57, i32 noundef %58, ptr noundef null, i32 noundef %60, i32 noundef %62, i32 noundef %64)
  store ptr %65, ptr %6, align 8, !tbaa !11
  %66 = load ptr, ptr %6, align 8, !tbaa !11
  %67 = getelementptr inbounds nuw %struct.parms_t, ptr %9, i32 0, i32 1
  %68 = load ptr, ptr %67, align 8, !tbaa !20
  %69 = call i32 @agwrite(ptr noundef %66, ptr noundef %68)
  call void @graphviz_exit(i32 noundef 0) #14
  unreachable
}