; Function Attrs: noreturn nounwind uwtable
define dso_local noundef i32 @main(i32 noundef %0, ptr noundef %1) local_unnamed_addr #0 {
  %3 = alloca i32, align 4
  %4 = load ptr, ptr @stdin, align 8, !tbaa !4
  %5 = load ptr, ptr @stdout, align 8, !tbaa !4
  %6 = load ptr, ptr %1, align 8, !tbaa !9
  store ptr %6, ptr @cmd, align 8, !tbaa !9
  store i32 0, ptr @opterr, align 4, !tbaa !11
  br label %openF.exit.i.outer

openF.exit.i.outer:                               ; preds = %24, %2
  %.sroa.24.0.ph = phi i32 [ %21, %24 ], [ 1, %2 ]
  %.sroa.21.0.ph = phi i32 [ %.sroa.21.0.ph112, %24 ], [ 0, %2 ]
  %.sroa.18.0.ph = phi i32 [ %.sroa.18.0.ph118, %24 ], [ 0, %2 ]
  %.sroa.15.0.ph = phi i32 [ %.sroa.15.0.ph123, %24 ], [ 0, %2 ]
  %.sroa.12.0.ph = phi i32 [ %.sroa.12.0.ph127, %24 ], [ 0, %2 ]
  %.sroa.4.0.ph = phi ptr [ %.sroa.4.0.ph130, %24 ], [ %5, %2 ]
  br label %openF.exit.i.outer111

openF.exit.i.outer111:                            ; preds = %openF.exit.i.outer, %15
  %.sroa.21.0.ph112 = phi i32 [ %.sroa.21.0.ph, %openF.exit.i.outer ], [ 1, %15 ]
  %.sroa.18.0.ph113 = phi i32 [ %.sroa.18.0.ph, %openF.exit.i.outer ], [ %.sroa.18.0.ph118, %15 ]
  %.sroa.15.0.ph114 = phi i32 [ %.sroa.15.0.ph, %openF.exit.i.outer ], [ %.sroa.15.0.ph123, %15 ]
  %.sroa.12.0.ph115 = phi i32 [ %.sroa.12.0.ph, %openF.exit.i.outer ], [ %.sroa.12.0.ph127, %15 ]
  %.sroa.4.0.ph116 = phi ptr [ %.sroa.4.0.ph, %openF.exit.i.outer ], [ %.sroa.4.0.ph130, %15 ]
  br label %openF.exit.i.outer117

openF.exit.i.outer117:                            ; preds = %openF.exit.i.outer111, %16
  %.sroa.18.0.ph118 = phi i32 [ %.sroa.18.0.ph113, %openF.exit.i.outer111 ], [ 1, %16 ]
  %.sroa.15.0.ph119 = phi i32 [ %.sroa.15.0.ph114, %openF.exit.i.outer111 ], [ %.sroa.15.0.ph123, %16 ]
  %.sroa.12.0.ph120 = phi i32 [ %.sroa.12.0.ph115, %openF.exit.i.outer111 ], [ %.sroa.12.0.ph127, %16 ]
  %.sroa.4.0.ph121 = phi ptr [ %.sroa.4.0.ph116, %openF.exit.i.outer111 ], [ %.sroa.4.0.ph130, %16 ]
  br label %openF.exit.i.outer122

openF.exit.i.outer122:                            ; preds = %openF.exit.i, %openF.exit.i.outer117
  %.sroa.15.0.ph123 = phi i32 [ %.sroa.15.0.ph119, %openF.exit.i.outer117 ], [ 1, %openF.exit.i ]
  %.sroa.12.0.ph124 = phi i32 [ %.sroa.12.0.ph120, %openF.exit.i.outer117 ], [ %.sroa.12.0.ph127, %openF.exit.i ]
  %.sroa.4.0.ph125 = phi ptr [ %.sroa.4.0.ph121, %openF.exit.i.outer117 ], [ %.sroa.4.0.ph130, %openF.exit.i ]
  br label %openF.exit.i.outer126

openF.exit.i.outer126:                            ; preds = %openF.exit.i.outer122, %14
  %.sroa.12.0.ph127 = phi i32 [ %.sroa.12.0.ph124, %openF.exit.i.outer122 ], [ 1, %14 ]
  %.sroa.4.0.ph128 = phi ptr [ %.sroa.4.0.ph125, %openF.exit.i.outer122 ], [ %.sroa.4.0.ph130, %14 ]
  br label %openF.exit.i.outer129

openF.exit.i.outer129:                            ; preds = %openF.exit.i.outer126, %8
  %.sroa.4.0.ph130 = phi ptr [ %.sroa.4.0.ph128, %openF.exit.i.outer126 ], [ %10, %8 ]
  br label %openF.exit.i

openF.exit.i:                                     ; preds = %openF.exit.i.outer129, %25
  %7 = call i32 @getopt(i32 noundef %0, ptr noundef nonnull %1, ptr noundef nonnull @.str.3) #20
  switch i32 %7, label %37 [
    i32 -1, label %40
    i32 111, label %8
    i32 108, label %openF.exit.i.outer122
    i32 117, label %14
    i32 118, label %15
    i32 99, label %16
    i32 85, label %17
    i32 58, label %25
    i32 63, label %30
  ], !llvm.loop !13

8:                                                ; preds = %openF.exit.i
  %9 = load ptr, ptr @optarg, align 8, !tbaa !9
  %10 = call noalias ptr @fopen(ptr noundef %9, ptr noundef nonnull @.str.4)
  %.not.i.i = icmp eq ptr %10, null
  br i1 %.not.i.i, label %11, label %openF.exit.i.outer129, !llvm.loop !13

11:                                               ; preds = %8
  %12 = load ptr, ptr @stderr, align 8, !tbaa !4
  %13 = call i32 (ptr, ptr, ...) @fprintf(ptr noundef %12, ptr noundef nonnull @.str.11, ptr noundef %9, ptr noundef nonnull @.str.13) #21
  call fastcc void @graphviz_exit(i32 noundef 1) #22
  unreachable

14:                                               ; preds = %openF.exit.i
  br label %openF.exit.i.outer126, !llvm.loop !13

15:                                               ; preds = %openF.exit.i
  br label %openF.exit.i.outer111, !llvm.loop !13

16:                                               ; preds = %openF.exit.i
  br label %openF.exit.i.outer117, !llvm.loop !13

17:                                               ; preds = %openF.exit.i
  call void @llvm.lifetime.start.p0(i64 4, ptr nonnull %3) #20
  %18 = load ptr, ptr @optarg, align 8, !tbaa !9
  %19 = call i32 (ptr, ptr, ...) @__isoc99_sscanf(ptr noundef %18, ptr noundef nonnull @.str.5, ptr noundef nonnull %3) #20
  %20 = icmp slt i32 %19, 1
  %21 = load i32, ptr %3, align 4
  %22 = icmp ugt i32 %21, 3
  %or.cond3.i = select i1 %20, i1 true, i1 %22
  br i1 %or.cond3.i, label %23, label %24

23:                                               ; preds = %17
  call fastcc void @usage(i32 noundef 1)
  unreachable

24:                                               ; preds = %17
  call void @llvm.lifetime.end.p0(i64 4, ptr nonnull %3) #20
  br label %openF.exit.i.outer, !llvm.loop !13

25:                                               ; preds = %openF.exit.i
  %26 = load ptr, ptr @stderr, align 8, !tbaa !4
  %27 = load ptr, ptr @cmd, align 8, !tbaa !9
  %28 = load i32, ptr @optopt, align 4, !tbaa !11
  %29 = call i32 (ptr, ptr, ...) @fprintf(ptr noundef %26, ptr noundef nonnull @.str.6, ptr noundef %27, i32 noundef %28) #21
  br label %openF.exit.i, !llvm.loop !13

30:                                               ; preds = %openF.exit.i
  %31 = load i32, ptr @optopt, align 4, !tbaa !11
  switch i32 %31, label %33 [
    i32 63, label %32
    i32 0, label %32
  ]

32:                                               ; preds = %30, %30
  call fastcc void @usage(i32 noundef 0)
  unreachable

33:                                               ; preds = %30
  %34 = load ptr, ptr @stderr, align 8, !tbaa !4
  %35 = load ptr, ptr @cmd, align 8, !tbaa !9
  %36 = call i32 (ptr, ptr, ...) @fprintf(ptr noundef %34, ptr noundef nonnull @.str.7, ptr noundef %35, i32 noundef %31) #21
  call fastcc void @usage(i32 noundef 1)
  unreachable

37:                                               ; preds = %openF.exit.i
  %38 = load ptr, ptr @stderr, align 8, !tbaa !4
  %39 = call i32 (ptr, ptr, ...) @fprintf(ptr noundef %38, ptr noundef nonnull @.str.8, ptr noundef nonnull @.str.9, i32 noundef 281) #21
  call void @abort() #23
  unreachable

40:                                               ; preds = %openF.exit.i
  %41 = load i32, ptr @optind, align 4, !tbaa !11
  %42 = icmp sgt i32 %0, %41
  br i1 %42, label %43, label %init.exit

43:                                               ; preds = %40
  %44 = sext i32 %41 to i64
  %45 = getelementptr inbounds ptr, ptr %1, i64 %44
  %46 = load ptr, ptr %45, align 8, !tbaa !9
  %47 = call noalias ptr @fopen(ptr noundef %46, ptr noundef nonnull @.str.10)
  %.not.i23.i = icmp eq ptr %47, null
  br i1 %.not.i23.i, label %48, label %init.exit

48:                                               ; preds = %43
  %49 = load ptr, ptr @stderr, align 8, !tbaa !4
  %50 = call i32 (ptr, ptr, ...) @fprintf(ptr noundef %49, ptr noundef nonnull @.str.11, ptr noundef %46, ptr noundef nonnull @.str.12) #21
  call fastcc void @graphviz_exit(i32 noundef 1) #22
  unreachable

init.exit:                                        ; preds = %43, %40
  %.sroa.7.0 = phi ptr [ @.str, %40 ], [ %46, %43 ]
  %.sroa.0.0 = phi ptr [ %4, %40 ], [ %47, %43 ]
  %51 = call ptr @SparseMatrix_import_matrix_market(ptr noundef %.sroa.0.0) #20
  %.not = icmp eq ptr %51, null
  br i1 %.not, label %52, label %55

52:                                               ; preds = %init.exit
  %53 = load ptr, ptr @stderr, align 8, !tbaa !4
  %54 = call i32 (ptr, ptr, ...) @fprintf(ptr noundef %53, ptr noundef nonnull @.str.1, ptr noundef %.sroa.7.0) #21
  call fastcc void @usage(i32 noundef 1)
  unreachable

55:                                               ; preds = %init.exit
  %56 = call ptr @SparseMatrix_to_square_matrix(ptr noundef nonnull %51, i32 noundef %.sroa.24.0.ph) #20
  %.not11 = icmp eq ptr %56, null
  br i1 %.not11, label %57, label %60

57:                                               ; preds = %55
  %58 = load ptr, ptr @stderr, align 8, !tbaa !4
  %59 = call i32 (ptr, ptr, ...) @fprintf(ptr noundef %58, ptr noundef nonnull @.str.2, ptr noundef %.sroa.7.0) #21
  call fastcc void @graphviz_exit(i32 noundef 1) #22
  unreachable

60:                                               ; preds = %55
  %.not12 = icmp eq i32 %.sroa.12.0.ph127, 0
  br i1 %.not12, label %63, label %61

61:                                               ; preds = %60
  %62 = call ptr @SparseMatrix_make_undirected(ptr noundef nonnull %56) #20
  call void @SparseMatrix_delete(ptr noundef nonnull %56) #20
  br label %63

63:                                               ; preds = %61, %60
  %.0 = phi ptr [ %62, %61 ], [ %56, %60 ]
  %64 = call fastcc ptr @makeDotGraph(ptr noundef %.0, ptr noundef %.sroa.7.0, i32 noundef %.sroa.18.0.ph118, i32 noundef %.sroa.15.0.ph123, i32 noundef %.sroa.21.0.ph112)
  %65 = call i32 @agwrite(ptr noundef %64, ptr noundef %.sroa.4.0.ph130) #20
  call fastcc void @graphviz_exit(i32 noundef 0) #22
  unreachable
}